target datalayout = "e-m:e-p270:32:32-p271:32:32-p272:64:64-i64:64-i128:128-f80:128-n8:16:32:64-S128"
target triple = "x86_64-pc-linux-gnu"

%struct.If_DsdMan_t_ = type { ptr, i32, i32, i32, i32, ptr, ptr, %struct.Vec_Ptr_t_, %struct.Vec_Int_t_, %struct.Vec_Int_t_, ptr, ptr, ptr, [16 x ptr], [16 x ptr], [16 x ptr], [16 x ptr], i32, i32, ptr, ptr, ptr, ptr, ptr, i32, i32, i32, i32, i64, i64, i64, i64, i64 }
%struct.Vec_Ptr_t_ = type { i32, i32, ptr }
%struct.Vec_Int_t_ = type { i32, i32, ptr }
%struct.If_DsdObj_t_ = type { i32, i32, [0 x i32] }
%struct.Vec_Wrd_t_ = type { i32, i32, ptr }

; Function Attrs: inlinehint nounwind uwtable
define internal ptr @Vec_PtrEntry(ptr noundef %0, i32 noundef %1) #1 {
  %3 = alloca ptr, align 8
  %4 = alloca i32, align 4
  store ptr %0, ptr %3, align 8, !tbaa !22
  store i32 %1, ptr %4, align 4, !tbaa !27
  %5 = load ptr, ptr %3, align 8, !tbaa !22
  %6 = getelementptr inbounds nuw %struct.Vec_Ptr_t_, ptr %5, i32 0, i32 2
  %7 = load ptr, ptr %6, align 8, !tbaa !46
  %8 = load i32, ptr %4, align 4, !tbaa !27
  %9 = sext i32 %8 to i64
  %10 = getelementptr inbounds ptr, ptr %7, i64 %9
  %11 = load ptr, ptr %10, align 8, !tbaa !44
  ret ptr %11
}

; Function Attrs: inlinehint nounwind uwtable
define internal i32 @Vec_PtrSize(ptr noundef %0) #1 {
  %2 = alloca ptr, align 8
  store ptr %0, ptr %2, align 8, !tbaa !22
  %3 = load ptr, ptr %2, align 8, !tbaa !22
  %4 = getelementptr inbounds nuw %struct.Vec_Ptr_t_, ptr %3, i32 0, i32 1
  %5 = load i32, ptr %4, align 4, !tbaa !24
  ret i32 %5
}

; Function Attrs: inlinehint nounwind uwtable
define internal void @Vec_WrdFreeP(ptr noundef %0) #1 {
  %2 = alloca ptr, align 8
  store ptr %0, ptr %2, align 8, !tbaa !110
  %3 = load ptr, ptr %2, align 8, !tbaa !110
  %4 = load ptr, ptr %3, align 8, !tbaa !34
  %5 = icmp eq ptr %4, null
  br i1 %5, label %6, label %7

6:                                                ; preds = %1
  br label %32

7:                                                ; preds = %1
  %8 = load ptr, ptr %2, align 8, !tbaa !110
  %9 = load ptr, ptr %8, align 8, !tbaa !34
  %10 = getelementptr inbounds nuw %struct.Vec_Wrd_t_, ptr %9, i32 0, i32 2
  %11 = load ptr, ptr %10, align 8, !tbaa !35
  %12 = icmp ne ptr %11, null
  br i1 %12, label %13, label %21

13:                                               ; preds = %7
  %14 = load ptr, ptr %2, align 8, !tbaa !110
  %15 = load ptr, ptr %14, align 8, !tbaa !34
  %16 = getelementptr inbounds nuw %struct.Vec_Wrd_t_, ptr %15, i32 0, i32 2
  %17 = load ptr, ptr %16, align 8, !tbaa !35
  call void @free(ptr noundef %17) #15
  %18 = load ptr, ptr %2, align 8, !tbaa !110
  %19 = load ptr, ptr %18, align 8, !tbaa !34
  %20 = getelementptr inbounds nuw %struct.Vec_Wrd_t_, ptr %19, i32 0, i32 2
  store ptr null, ptr %20, align 8, !tbaa !35
  br label %22

21:                                               ; preds = %7
  br label %22

22:                                               ; preds = %21, %13
  %23 = load ptr, ptr %2, align 8, !tbaa !110
  %24 = load ptr, ptr %23, align 8, !tbaa !34
  %25 = icmp ne ptr %24, null
  br i1 %25, label %26, label %30

26:                                               ; preds = %22
  %27 = load ptr, ptr %2, align 8, !tbaa !110
  %28 = load ptr, ptr %27, align 8, !tbaa !34
  call void @free(ptr noundef %28) #15
  %29 = load ptr, ptr %2, align 8, !tbaa !110
  store ptr null, ptr %29, align 8, !tbaa !34
  br label %31

30:                                               ; preds = %22
  br label %31

31:                                               ; preds = %30, %26
  br label %32

32:                                               ; preds = %31, %6
  ret void
}

; Function Attrs: nounwind uwtable
define void @If_DsdManCleanMarks(ptr noundef %0, i32 noundef %1) #0 {
  %3 = alloca ptr, align 8
  %4 = alloca i32, align 4
  %5 = alloca ptr, align 8
  %6 = alloca i32, align 4
  store ptr %0, ptr %3, align 8, !tbaa !3
  store i32 %1, ptr %4, align 4, !tbaa !27
  call void @llvm.lifetime.start.p0(i64 8, ptr %5) #15
  call void @llvm.lifetime.start.p0(i64 4, ptr %6) #15
  %7 = load ptr, ptr %3, align 8, !tbaa !3
  %8 = getelementptr inbounds nuw %struct.If_DsdMan_t_, ptr %7, i32 0, i32 23
  %9 = load ptr, ptr %8, align 8, !tbaa !38
  %10 = icmp ne ptr %9, null
  br i1 %10, label %11, label %17

11:                                               ; preds = %2
  %12 = load ptr, ptr %3, align 8, !tbaa !3
  %13 = getelementptr inbounds nuw %struct.If_DsdMan_t_, ptr %12, i32 0, i32 23
  %14 = load ptr, ptr %13, align 8, !tbaa !38
  call void @free(ptr noundef %14) #15
  %15 = load ptr, ptr %3, align 8, !tbaa !3
  %16 = getelementptr inbounds nuw %struct.If_DsdMan_t_, ptr %15, i32 0, i32 23
  store ptr null, ptr %16, align 8, !tbaa !38
  br label %18

17:                                               ; preds = %2
  br label %18

18:                                               ; preds = %17, %11
  %19 = load ptr, ptr %3, align 8, !tbaa !3
  %20 = getelementptr inbounds nuw %struct.If_DsdMan_t_, ptr %19, i32 0, i32 19
  call void @Vec_WrdFreeP(ptr noundef %20)
  store i32 0, ptr %6, align 4, !tbaa !27
  br label %21

21:                                               ; preds = %40, %18
  %22 = load i32, ptr %6, align 4, !tbaa !27
  %23 = load ptr, ptr %3, align 8, !tbaa !3
  %24 = getelementptr inbounds nuw %struct.If_DsdMan_t_, ptr %23, i32 0, i32 7
  %25 = call i32 @Vec_PtrSize(ptr noundef %24)
  %26 = icmp slt i32 %22, %25
  br i1 %26, label %27, label %32

27:                                               ; preds = %21
  %28 = load ptr, ptr %3, align 8, !tbaa !3
  %29 = getelementptr inbounds nuw %struct.If_DsdMan_t_, ptr %28, i32 0, i32 7
  %30 = load i32, ptr %6, align 4, !tbaa !27
  %31 = call ptr @Vec_PtrEntry(ptr noundef %29, i32 noundef %30)
  store ptr %31, ptr %5, align 8, !tbaa !40
  br label %32

32:                                               ; preds = %27, %21
  %33 = phi i1 [ false, %21 ], [ true, %27 ]
  br i1 %33, label %34, label %43

34:                                               ; preds = %32
  %35 = load ptr, ptr %5, align 8, !tbaa !40
  %36 = getelementptr inbounds nuw %struct.If_DsdObj_t_, ptr %35, i32 0, i32 1
  %37 = load i32, ptr %36, align 4
  %38 = and i32 %37, -257
  %39 = or i32 %38, 0
  store i32 %39, ptr %36, align 4
  br label %40

40:                                               ; preds = %34
  %41 = load i32, ptr %6, align 4, !tbaa !27
  %42 = add nsw i32 %41, 1
  store i32 %42, ptr %6, align 4, !tbaa !27
  br label %21, !llvm.loop !186

43:                                               ; preds = %32
  call void @llvm.lifetime.end.p0(i64 4, ptr %6) #15
  call void @llvm.lifetime.end.p0(i64 8, ptr %5) #15
  ret void
}