; Function Attrs: nounwind uwtable
define void @If_DsdManCleanMarks(ptr noundef captures(none) %0, i32 noundef %1) local_unnamed_addr #4 {
  %3 = getelementptr inbounds nuw i8, ptr %0, i64 664
  %4 = load ptr, ptr %3, align 8, !tbaa !32
  %.not = icmp eq ptr %4, null
  br i1 %.not, label %6, label %5

5:                                                ; preds = %2
  tail call void @free(ptr noundef nonnull %4) #39
  store ptr null, ptr %3, align 8, !tbaa !32
  br label %6

6:                                                ; preds = %2, %5
  %7 = getelementptr inbounds nuw i8, ptr %0, i64 632
  %8 = load ptr, ptr %7, align 8, !tbaa !98
  %9 = icmp eq ptr %8, null
  br i1 %9, label %Vec_WrdFreeP.exit, label %10

10:                                               ; preds = %6
  %11 = getelementptr inbounds nuw i8, ptr %8, i64 8
  %12 = load ptr, ptr %11, align 8, !tbaa !29
  %.not.i = icmp eq ptr %12, null
  br i1 %.not.i, label %15, label %.thread.i

.thread.i:                                        ; preds = %10
  tail call void @free(ptr noundef nonnull %12) #39
  %13 = load ptr, ptr %7, align 8, !tbaa !98
  %14 = getelementptr inbounds nuw i8, ptr %13, i64 8
  store ptr null, ptr %14, align 8, !tbaa !29
  br label %15

15:                                               ; preds = %.thread.i, %10
  %16 = phi ptr [ %13, %.thread.i ], [ %8, %10 ]
  tail call void @free(ptr noundef nonnull %16) #39
  store ptr null, ptr %7, align 8, !tbaa !98
  br label %Vec_WrdFreeP.exit

Vec_WrdFreeP.exit:                                ; preds = %6, %15
  %17 = getelementptr i8, ptr %0, i64 44
  %.val11 = load i32, ptr %17, align 4, !tbaa !20
  %18 = icmp sgt i32 %.val11, 0
  br i1 %18, label %.lr.ph, label %.critedge

.lr.ph:                                           ; preds = %Vec_WrdFreeP.exit
  %19 = getelementptr i8, ptr %0, i64 48
  br label %20

20:                                               ; preds = %.lr.ph, %20
  %indvars.iv = phi i64 [ 0, %.lr.ph ], [ %indvars.iv.next, %20 ]
  %.val10 = load ptr, ptr %19, align 8, !tbaa !23
  %21 = getelementptr inbounds nuw ptr, ptr %.val10, i64 %indvars.iv
  %22 = load ptr, ptr %21, align 8, !tbaa !24
  %23 = getelementptr inbounds nuw i8, ptr %22, i64 4
  %24 = load i32, ptr %23, align 4
  %25 = and i32 %24, -257
  store i32 %25, ptr %23, align 4
  %indvars.iv.next = add nuw nsw i64 %indvars.iv, 1
  %.val = load i32, ptr %17, align 4, !tbaa !20
  %26 = sext i32 %.val to i64
  %27 = icmp slt i64 %indvars.iv.next, %26
  br i1 %27, label %20, label %.critedge, !llvm.loop !188

.critedge:                                        ; preds = %20, %Vec_WrdFreeP.exit
  ret void
}